; Function Attrs: mustprogress nofree norecurse nosync nounwind willreturn memory(readwrite, inaccessiblemem: none) uwtable
define hidden void @_ZN16NullCheckVisitor16do_NewMultiArrayEP13NewMultiArray(ptr nocapture noundef nonnull readonly align 8 dereferenceable(16) %0, ptr nocapture noundef readonly %1) unnamed_addr #4 align 2 {
  %3 = getelementptr inbounds i8, ptr %0, i64 8
  %4 = load ptr, ptr %3, align 8
  %5 = getelementptr inbounds i8, ptr %4, i64 32
  %6 = load ptr, ptr %5, align 8
  %7 = getelementptr inbounds i8, ptr %1, i64 8
  %8 = load i32, ptr %7, align 8
  %9 = sext i32 %8 to i64
  %10 = and i64 %9, 63
  %11 = shl nuw i64 1, %10
  %12 = load ptr, ptr %6, align 8
  %13 = lshr i64 %9, 6
  %14 = getelementptr inbounds i64, ptr %12, i64 %13
  %15 = load i64, ptr %14, align 8
  %16 = or i64 %11, %15
  store i64 %16, ptr %14, align 8
  ret void
}